target datalayout = "e-m:e-p270:32:32-p271:32:32-p272:64:64-i64:64-i128:128-f80:128-n8:16:32:64-S128"
target triple = "x86_64-pc-linux-gnu"

@_ZTIN4nori13NoriExceptionE = linkonce_odr hidden constant { ptr, ptr, ptr } { ptr getelementptr inbounds (ptr, ptr @_ZTVN10__cxxabiv120__si_class_type_infoE, i64 2), ptr @_ZTSN4nori13NoriExceptionE, ptr @_ZTISt13runtime_error }, comdat, align 8
@.str.3 = private unnamed_addr constant [35 x i8] c"Could not parse integer value \22%s\22\00", align 1

; Function Attrs: mustprogress uwtable
define hidden noundef i32 @_ZN4nori6toUIntERKNSt7__cxx1112basic_stringIcSt11char_traitsIcESaIcEEE(ptr noundef nonnull align 8 dereferenceable(32) %0) #4 personality ptr @__gxx_personality_v0 {
  %2 = alloca ptr, align 8
  %3 = alloca ptr, align 8
  %4 = alloca i32, align 4
  %5 = alloca ptr, align 8
  %6 = alloca i32, align 4
  store ptr %0, ptr %2, align 8
  store ptr null, ptr %3, align 8
  %7 = load ptr, ptr %2, align 8
  %8 = call noundef ptr @_ZNKSt7__cxx1112basic_stringIcSt11char_traitsIcESaIcEE5c_strEv(ptr noundef nonnull align 8 dereferenceable(32) %7) #3
  %9 = call i64 @strtoul(ptr noundef %8, ptr noundef %3, i32 noundef 10) #3
  %10 = trunc i64 %9 to i32
  store i32 %10, ptr %4, align 4
  %11 = load ptr, ptr %3, align 8
  %12 = load i8, ptr %11, align 1
  %13 = sext i8 %12 to i32
  %14 = icmp ne i32 %13, 0
  br i1 %14, label %15, label %23

15:                                               ; preds = %1
  %16 = call ptr @__cxa_allocate_exception(i64 16) #3
  %17 = load ptr, ptr %2, align 8
  invoke void @_ZN4nori13NoriExceptionC2IJNSt7__cxx1112basic_stringIcSt11char_traitsIcESaIcEEEEEEPKcDpRKT_(ptr noundef nonnull align 8 dereferenceable(16) %16, ptr noundef @.str.3, ptr noundef nonnull align 8 dereferenceable(32) %17)
          to label %18 unwind label %19

18:                                               ; preds = %15
  call void @__cxa_throw(ptr %16, ptr @_ZTIN4nori13NoriExceptionE, ptr @_ZN4nori13NoriExceptionD2Ev) #18
  unreachable

19:                                               ; preds = %15
  %20 = landingpad { ptr, i32 }
          cleanup
  %21 = extractvalue { ptr, i32 } %20, 0
  store ptr %21, ptr %5, align 8
  %22 = extractvalue { ptr, i32 } %20, 1
  store i32 %22, ptr %6, align 4
  call void @__cxa_free_exception(ptr %16) #3
  br label %25

23:                                               ; preds = %1
  %24 = load i32, ptr %4, align 4
  ret i32 %24

25:                                               ; preds = %19
  %26 = load ptr, ptr %5, align 8
  %27 = load i32, ptr %6, align 4
  %28 = insertvalue { ptr, i32 } poison, ptr %26, 0
  %29 = insertvalue { ptr, i32 } %28, i32 %27, 1
  resume { ptr, i32 } %29
}